target datalayout = "e-m:e-p270:32:32-p271:32:32-p272:64:64-i64:64-i128:128-f80:128-n8:16:32:64-S128"
target triple = "x86_64-pc-linux-gnu"

%struct._zend_array = type { %struct._zend_refcounted_h, %union.anon.0, i32, %union.anon.1, i32, i32, i32, i32, i64, ptr }
%struct._zend_refcounted_h = type { i32, %union.anon }
%union.anon = type { i32 }
%union.anon.0 = type { i32 }
%union.anon.1 = type { ptr }
%struct._zval_struct = type { %union._zend_value, %union.anon.3, %union.anon.6 }
%union._zend_value = type { i64 }
%union.anon.3 = type { i32 }
%union.anon.6 = type { i32 }
%struct._zend_op_array = type { i8, [3 x i8], i32, ptr, ptr, ptr, i32, i32, ptr, ptr, ptr, ptr, i32, i32, i32, i32, ptr, ptr, ptr, ptr, ptr, i32, i32, ptr, ptr, ptr, i32, i32, i32, i32, ptr, ptr, [6 x ptr] }
%struct._zend_string = type { %struct._zend_refcounted_h, i64, i64, [1 x i8] }
%struct._zend_script = type { ptr, %struct._zend_op_array, %struct._zend_array, %struct._zend_array }
%struct._Bucket = type { %struct._zval_struct, i64, ptr }

; Function Attrs: nounwind uwtable
define hidden void @zend_accel_move_user_functions(ptr noundef %0, i32 noundef %1, ptr noundef %2) #0 {
  %4 = alloca ptr, align 8
  %5 = alloca ptr, align 8
  %6 = alloca i32, align 4
  %7 = alloca i32, align 4
  %8 = alloca ptr, align 8
  %9 = alloca i32, align 4
  %10 = alloca ptr, align 8
  %11 = alloca ptr, align 8
  %12 = alloca ptr, align 8
  %13 = alloca i8, align 1
  %14 = alloca i32, align 4
  %15 = alloca i32, align 4
  %16 = alloca ptr, align 8
  %17 = alloca ptr, align 8
  %18 = alloca ptr, align 8
  %19 = alloca ptr, align 8
  %20 = alloca ptr, align 8
  %21 = alloca ptr, align 8
  %22 = alloca i32, align 4
  %23 = alloca ptr, align 8
  %24 = alloca ptr, align 8
  %25 = alloca ptr, align 8
  %26 = alloca ptr, align 8
  %27 = alloca ptr, align 8
  %28 = alloca ptr, align 8
  %29 = alloca ptr, align 8
  store ptr %0, ptr %21, align 8
  store i32 %1, ptr %22, align 4
  store ptr %2, ptr %23, align 8
  %30 = load i32, ptr %22, align 4
  %31 = icmp ne i32 %30, 0
  br i1 %31, label %33, label %32

32:                                               ; preds = %3
  br label %213

33:                                               ; preds = %3
  %34 = load ptr, ptr %23, align 8
  %35 = getelementptr inbounds %struct._zend_script, ptr %34, i32 0, i32 2
  store ptr %35, ptr %26, align 8
  %36 = load ptr, ptr %23, align 8
  %37 = getelementptr inbounds %struct._zend_script, ptr %36, i32 0, i32 1
  %38 = getelementptr inbounds %struct._zend_op_array, ptr %37, i32 0, i32 25
  %39 = load ptr, ptr %38, align 8
  store ptr %39, ptr %27, align 8
  %40 = load ptr, ptr %21, align 8
  %41 = getelementptr inbounds %struct._zend_array, ptr %40, i32 0, i32 9
  %42 = load ptr, ptr %41, align 8
  store ptr %42, ptr %28, align 8
  %43 = load ptr, ptr %21, align 8
  %44 = getelementptr inbounds %struct._zend_array, ptr %43, i32 0, i32 9
  store ptr null, ptr %44, align 8
  %45 = load ptr, ptr %26, align 8
  %46 = load i32, ptr %22, align 4
  call void @zend_hash_extend(ptr noundef %45, i32 noundef %46, i1 noundef zeroext false)
  %47 = load ptr, ptr %21, align 8
  %48 = getelementptr inbounds %struct._zend_array, ptr %47, i32 0, i32 3
  %49 = load ptr, ptr %48, align 8
  %50 = load ptr, ptr %21, align 8
  %51 = getelementptr inbounds %struct._zend_array, ptr %50, i32 0, i32 4
  %52 = load i32, ptr %51, align 8
  %53 = zext i32 %52 to i64
  %54 = getelementptr inbounds %struct._Bucket, ptr %49, i64 %53
  store ptr %54, ptr %25, align 8
  %55 = load ptr, ptr %25, align 8
  %56 = load i32, ptr %22, align 4
  %57 = zext i32 %56 to i64
  %58 = sub i64 0, %57
  %59 = getelementptr inbounds %struct._Bucket, ptr %55, i64 %58
  store ptr %59, ptr %24, align 8
  br label %60

60:                                               ; preds = %206, %33
  %61 = load ptr, ptr %24, align 8
  %62 = load ptr, ptr %25, align 8
  %63 = icmp ne ptr %61, %62
  br i1 %63, label %64, label %209

64:                                               ; preds = %60
  %65 = load ptr, ptr %24, align 8
  %66 = getelementptr inbounds %struct._Bucket, ptr %65, i32 0, i32 0
  store ptr %66, ptr %20, align 8
  %67 = load ptr, ptr %20, align 8
  %68 = getelementptr inbounds %struct._zval_struct, ptr %67, i32 0, i32 1
  %69 = load i8, ptr %68, align 8
  %70 = zext i8 %69 to i32
  %71 = icmp eq i32 %70, 0
  %72 = xor i1 %71, true
  %73 = xor i1 %72, true
  %74 = zext i1 %73 to i32
  %75 = sext i32 %74 to i64
  %76 = icmp ne i64 %75, 0
  br i1 %76, label %77, label %78

77:                                               ; preds = %64
  br label %206

78:                                               ; preds = %64
  %79 = load ptr, ptr %24, align 8
  %80 = getelementptr inbounds %struct._Bucket, ptr %79, i32 0, i32 0
  %81 = getelementptr inbounds %struct._zval_struct, ptr %80, i32 0, i32 0
  %82 = load ptr, ptr %81, align 8
  store ptr %82, ptr %29, align 8
  %83 = load ptr, ptr %29, align 8
  %84 = load i8, ptr %83, align 8
  %85 = zext i8 %84 to i32
  %86 = icmp eq i32 %85, 2
  %87 = xor i1 %86, true
  %88 = xor i1 %87, true
  %89 = zext i1 %88 to i32
  %90 = sext i32 %89 to i64
  %91 = icmp ne i64 %90, 0
  br i1 %91, label %92, label %205

92:                                               ; preds = %78
  %93 = load ptr, ptr %29, align 8
  %94 = getelementptr inbounds %struct._zend_op_array, ptr %93, i32 0, i32 25
  %95 = load ptr, ptr %94, align 8
  %96 = load ptr, ptr %27, align 8
  %97 = icmp eq ptr %95, %96
  %98 = xor i1 %97, true
  %99 = xor i1 %98, true
  %100 = zext i1 %99 to i32
  %101 = sext i32 %100 to i64
  %102 = icmp ne i64 %101, 0
  br i1 %102, label %103, label %205

103:                                              ; preds = %92
  %104 = load ptr, ptr %26, align 8
  %105 = load ptr, ptr %24, align 8
  %106 = getelementptr inbounds %struct._Bucket, ptr %105, i32 0, i32 2
  %107 = load ptr, ptr %106, align 8
  %108 = load ptr, ptr %29, align 8
  store ptr %104, ptr %17, align 8
  store ptr %107, ptr %18, align 8
  store ptr %108, ptr %19, align 8
  %109 = load ptr, ptr %17, align 8
  %110 = load ptr, ptr %18, align 8
  %111 = load ptr, ptr %19, align 8
  store ptr %109, ptr %10, align 8
  store ptr %110, ptr %11, align 8
  store ptr %111, ptr %12, align 8
  store i8 0, ptr %13, align 1
  %112 = load ptr, ptr %10, align 8
  %113 = getelementptr inbounds %struct._zend_array, ptr %112, i32 0, i32 4
  %114 = load i32, ptr %113, align 8
  %115 = add i32 %114, 1
  store i32 %115, ptr %113, align 8
  store i32 %114, ptr %14, align 4
  %116 = load ptr, ptr %10, align 8
  %117 = getelementptr inbounds %struct._zend_array, ptr %116, i32 0, i32 3
  %118 = load ptr, ptr %117, align 8
  %119 = load i32, ptr %14, align 4
  %120 = zext i32 %119 to i64
  %121 = getelementptr inbounds %struct._Bucket, ptr %118, i64 %120
  store ptr %121, ptr %16, align 8
  %122 = load ptr, ptr %12, align 8
  %123 = load ptr, ptr %16, align 8
  store ptr %122, ptr %123, align 8
  %124 = load ptr, ptr %16, align 8
  %125 = getelementptr inbounds %struct._zval_struct, ptr %124, i32 0, i32 1
  store i32 13, ptr %125, align 8
  %126 = load i8, ptr %13, align 1
  %127 = trunc i8 %126 to i1
  br i1 %127, label %166, label %128

128:                                              ; preds = %103
  %129 = load ptr, ptr %11, align 8
  %130 = getelementptr inbounds %struct._zend_refcounted_h, ptr %129, i32 0, i32 1
  %131 = load i32, ptr %130, align 4
  store i32 %131, ptr %9, align 4
  %132 = load i32, ptr %9, align 4
  %133 = and i32 %132, 1008
  %134 = and i32 %133, 64
  %135 = icmp ne i32 %134, 0
  br i1 %135, label %166, label %136

136:                                              ; preds = %128
  %137 = load ptr, ptr %10, align 8
  %138 = getelementptr inbounds %struct._zend_array, ptr %137, i32 0, i32 1
  %139 = load i32, ptr %138, align 8
  %140 = and i32 %139, -17
  store i32 %140, ptr %138, align 8
  %141 = load ptr, ptr %11, align 8
  store ptr %141, ptr %8, align 8
  %142 = load ptr, ptr %8, align 8
  %143 = getelementptr inbounds %struct._zend_refcounted_h, ptr %142, i32 0, i32 1
  %144 = load i32, ptr %143, align 4
  store i32 %144, ptr %6, align 4
  %145 = load i32, ptr %6, align 4
  %146 = and i32 %145, 1008
  %147 = and i32 %146, 64
  %148 = icmp ne i32 %147, 0
  br i1 %148, label %154, label %149

149:                                              ; preds = %136
  %150 = load ptr, ptr %8, align 8
  store ptr %150, ptr %4, align 8
  %151 = load ptr, ptr %4, align 8
  %152 = load i32, ptr %151, align 4
  %153 = add i32 %152, 1
  store i32 %153, ptr %151, align 4
  store i32 %153, ptr %7, align 4
  br label %155

154:                                              ; preds = %136
  store i32 1, ptr %7, align 4
  br label %155

155:                                              ; preds = %154, %149
  %156 = load ptr, ptr %11, align 8
  store ptr %156, ptr %5, align 8
  %157 = load ptr, ptr %5, align 8
  %158 = getelementptr inbounds %struct._zend_string, ptr %157, i32 0, i32 1
  %159 = load i64, ptr %158, align 8
  %160 = icmp ne i64 %159, 0
  br i1 %160, label %161, label %162

161:                                              ; preds = %155
  br label %165

162:                                              ; preds = %155
  %163 = load ptr, ptr %5, align 8
  %164 = call i64 @zend_string_hash_func(ptr noundef %163) #11
  br label %165

165:                                              ; preds = %162, %161
  br label %166

166:                                              ; preds = %165, %128, %103
  %167 = load ptr, ptr %11, align 8
  %168 = load ptr, ptr %16, align 8
  %169 = getelementptr inbounds %struct._Bucket, ptr %168, i32 0, i32 2
  store ptr %167, ptr %169, align 8
  %170 = load ptr, ptr %11, align 8
  %171 = getelementptr inbounds %struct._zend_string, ptr %170, i32 0, i32 1
  %172 = load i64, ptr %171, align 8
  %173 = load ptr, ptr %16, align 8
  %174 = getelementptr inbounds %struct._Bucket, ptr %173, i32 0, i32 1
  store i64 %172, ptr %174, align 8
  %175 = load ptr, ptr %16, align 8
  %176 = getelementptr inbounds %struct._Bucket, ptr %175, i32 0, i32 1
  %177 = load i64, ptr %176, align 8
  %178 = trunc i64 %177 to i32
  %179 = load ptr, ptr %10, align 8
  %180 = getelementptr inbounds %struct._zend_array, ptr %179, i32 0, i32 2
  %181 = load i32, ptr %180, align 4
  %182 = or i32 %178, %181
  store i32 %182, ptr %15, align 4
  %183 = load ptr, ptr %10, align 8
  %184 = getelementptr inbounds %struct._zend_array, ptr %183, i32 0, i32 3
  %185 = load ptr, ptr %184, align 8
  %186 = load i32, ptr %15, align 4
  %187 = sext i32 %186 to i64
  %188 = getelementptr inbounds i32, ptr %185, i64 %187
  %189 = load i32, ptr %188, align 4
  %190 = load ptr, ptr %16, align 8
  %191 = getelementptr inbounds %struct._zval_struct, ptr %190, i32 0, i32 2
  store i32 %189, ptr %191, align 4
  %192 = load i32, ptr %14, align 4
  %193 = load ptr, ptr %10, align 8
  %194 = getelementptr inbounds %struct._zend_array, ptr %193, i32 0, i32 3
  %195 = load ptr, ptr %194, align 8
  %196 = load i32, ptr %15, align 4
  %197 = sext i32 %196 to i64
  %198 = getelementptr inbounds i32, ptr %195, i64 %197
  store i32 %192, ptr %198, align 4
  %199 = load ptr, ptr %10, align 8
  %200 = getelementptr inbounds %struct._zend_array, ptr %199, i32 0, i32 5
  %201 = load i32, ptr %200, align 4
  %202 = add i32 %201, 1
  store i32 %202, ptr %200, align 4
  %203 = load ptr, ptr %21, align 8
  %204 = load ptr, ptr %24, align 8
  call void @zend_hash_del_bucket(ptr noundef %203, ptr noundef %204)
  br label %205

205:                                              ; preds = %166, %92, %78
  br label %206

206:                                              ; preds = %205, %77
  %207 = load ptr, ptr %24, align 8
  %208 = getelementptr inbounds %struct._Bucket, ptr %207, i32 1
  store ptr %208, ptr %24, align 8
  br label %60

209:                                              ; preds = %60
  %210 = load ptr, ptr %28, align 8
  %211 = load ptr, ptr %21, align 8
  %212 = getelementptr inbounds %struct._zend_array, ptr %211, i32 0, i32 9
  store ptr %210, ptr %212, align 8
  br label %213

213:                                              ; preds = %209, %32
  ret void
}